#include <math.h>
#include <stdio.h>
#include <stdlib.h>
#include <string.h>
#include <iostream>
using namespace std;

int main()
{
	int n,a[101];
	cin>>n;
	int i;
	for (i=1;i<=n;i++)
	{
		cin>>a[i];
	}
	for (i=n;i>=2;i--)
	{
		cout<<a[i]<<' ';
	}
	cout<<a[1];



}
		

